target datalayout = "e-m:e-p270:32:32-p271:32:32-p272:64:64-i64:64-i128:128-f80:128-n8:16:32:64-S128"
target triple = "x86_64-pc-linux-gnu"

%struct.AVSHA512 = type { i8, i64, [128 x i8], [8 x i64] }

; Function Attrs: cold nounwind optsize uwtable
define i32 @av_sha512_init(ptr noundef %0, i32 noundef %1) #2 {
  %3 = alloca i32, align 4
  %4 = alloca ptr, align 8
  %5 = alloca i32, align 4
  store ptr %0, ptr %4, align 8, !tbaa !4
  store i32 %1, ptr %5, align 4, !tbaa !9
  %6 = load i32, ptr %5, align 4, !tbaa !9
  %7 = ashr i32 %6, 6
  %8 = trunc i32 %7 to i8
  %9 = load ptr, ptr %4, align 8, !tbaa !4
  %10 = getelementptr inbounds nuw %struct.AVSHA512, ptr %9, i32 0, i32 0
  store i8 %8, ptr %10, align 8, !tbaa !11
  %11 = load i32, ptr %5, align 4, !tbaa !9
  switch i32 %11, label %112 [
    i32 224, label %12
    i32 256, label %37
    i32 384, label %62
    i32 512, label %87
  ]

12:                                               ; preds = %2
  %13 = load ptr, ptr %4, align 8, !tbaa !4
  %14 = getelementptr inbounds nuw %struct.AVSHA512, ptr %13, i32 0, i32 3
  %15 = getelementptr inbounds [8 x i64], ptr %14, i64 0, i64 0
  store i64 -8341449602262348382, ptr %15, align 8, !tbaa !14
  %16 = load ptr, ptr %4, align 8, !tbaa !4
  %17 = getelementptr inbounds nuw %struct.AVSHA512, ptr %16, i32 0, i32 3
  %18 = getelementptr inbounds [8 x i64], ptr %17, i64 0, i64 1
  store i64 8350123849800275158, ptr %18, align 8, !tbaa !14
  %19 = load ptr, ptr %4, align 8, !tbaa !4
  %20 = getelementptr inbounds nuw %struct.AVSHA512, ptr %19, i32 0, i32 3
  %21 = getelementptr inbounds [8 x i64], ptr %20, i64 0, i64 2
  store i64 2160240930085379202, ptr %21, align 8, !tbaa !14
  %22 = load ptr, ptr %4, align 8, !tbaa !4
  %23 = getelementptr inbounds nuw %struct.AVSHA512, ptr %22, i32 0, i32 3
  %24 = getelementptr inbounds [8 x i64], ptr %23, i64 0, i64 3
  store i64 7466358040605728719, ptr %24, align 8, !tbaa !14
  %25 = load ptr, ptr %4, align 8, !tbaa !4
  %26 = getelementptr inbounds nuw %struct.AVSHA512, ptr %25, i32 0, i32 3
  %27 = getelementptr inbounds [8 x i64], ptr %26, i64 0, i64 4
  store i64 1111592415079452072, ptr %27, align 8, !tbaa !14
  %28 = load ptr, ptr %4, align 8, !tbaa !4
  %29 = getelementptr inbounds nuw %struct.AVSHA512, ptr %28, i32 0, i32 3
  %30 = getelementptr inbounds [8 x i64], ptr %29, i64 0, i64 5
  store i64 8638871050018654530, ptr %30, align 8, !tbaa !14
  %31 = load ptr, ptr %4, align 8, !tbaa !4
  %32 = getelementptr inbounds nuw %struct.AVSHA512, ptr %31, i32 0, i32 3
  %33 = getelementptr inbounds [8 x i64], ptr %32, i64 0, i64 6
  store i64 4583966954114332360, ptr %33, align 8, !tbaa !14
  %34 = load ptr, ptr %4, align 8, !tbaa !4
  %35 = getelementptr inbounds nuw %struct.AVSHA512, ptr %34, i32 0, i32 3
  %36 = getelementptr inbounds [8 x i64], ptr %35, i64 0, i64 7
  store i64 1230299281376055969, ptr %36, align 8, !tbaa !14
  br label %113

37:                                               ; preds = %2
  %38 = load ptr, ptr %4, align 8, !tbaa !4
  %39 = getelementptr inbounds nuw %struct.AVSHA512, ptr %38, i32 0, i32 3
  %40 = getelementptr inbounds [8 x i64], ptr %39, i64 0, i64 0
  store i64 2463787394917988140, ptr %40, align 8, !tbaa !14
  %41 = load ptr, ptr %4, align 8, !tbaa !4
  %42 = getelementptr inbounds nuw %struct.AVSHA512, ptr %41, i32 0, i32 3
  %43 = getelementptr inbounds [8 x i64], ptr %42, i64 0, i64 1
  store i64 -6965556091613846334, ptr %43, align 8, !tbaa !14
  %44 = load ptr, ptr %4, align 8, !tbaa !4
  %45 = getelementptr inbounds nuw %struct.AVSHA512, ptr %44, i32 0, i32 3
  %46 = getelementptr inbounds [8 x i64], ptr %45, i64 0, i64 2
  store i64 2563595384472711505, ptr %46, align 8, !tbaa !14
  %47 = load ptr, ptr %4, align 8, !tbaa !4
  %48 = getelementptr inbounds nuw %struct.AVSHA512, ptr %47, i32 0, i32 3
  %49 = getelementptr inbounds [8 x i64], ptr %48, i64 0, i64 3
  store i64 -7622211418569250115, ptr %49, align 8, !tbaa !14
  %50 = load ptr, ptr %4, align 8, !tbaa !4
  %51 = getelementptr inbounds nuw %struct.AVSHA512, ptr %50, i32 0, i32 3
  %52 = getelementptr inbounds [8 x i64], ptr %51, i64 0, i64 4
  store i64 -7626776825740460061, ptr %52, align 8, !tbaa !14
  %53 = load ptr, ptr %4, align 8, !tbaa !4
  %54 = getelementptr inbounds nuw %struct.AVSHA512, ptr %53, i32 0, i32 3
  %55 = getelementptr inbounds [8 x i64], ptr %54, i64 0, i64 5
  store i64 -4729309413028513390, ptr %55, align 8, !tbaa !14
  %56 = load ptr, ptr %4, align 8, !tbaa !4
  %57 = getelementptr inbounds nuw %struct.AVSHA512, ptr %56, i32 0, i32 3
  %58 = getelementptr inbounds [8 x i64], ptr %57, i64 0, i64 6
  store i64 3098927326965381290, ptr %58, align 8, !tbaa !14
  %59 = load ptr, ptr %4, align 8, !tbaa !4
  %60 = getelementptr inbounds nuw %struct.AVSHA512, ptr %59, i32 0, i32 3
  %61 = getelementptr inbounds [8 x i64], ptr %60, i64 0, i64 7
  store i64 1060366662362279074, ptr %61, align 8, !tbaa !14
  br label %113

62:                                               ; preds = %2
  %63 = load ptr, ptr %4, align 8, !tbaa !4
  %64 = getelementptr inbounds nuw %struct.AVSHA512, ptr %63, i32 0, i32 3
  %65 = getelementptr inbounds [8 x i64], ptr %64, i64 0, i64 0
  store i64 -3766243637369397544, ptr %65, align 8, !tbaa !14
  %66 = load ptr, ptr %4, align 8, !tbaa !4
  %67 = getelementptr inbounds nuw %struct.AVSHA512, ptr %66, i32 0, i32 3
  %68 = getelementptr inbounds [8 x i64], ptr %67, i64 0, i64 1
  store i64 7105036623409894663, ptr %68, align 8, !tbaa !14
  %69 = load ptr, ptr %4, align 8, !tbaa !4
  %70 = getelementptr inbounds nuw %struct.AVSHA512, ptr %69, i32 0, i32 3
  %71 = getelementptr inbounds [8 x i64], ptr %70, i64 0, i64 2
  store i64 -7973340178411365097, ptr %71, align 8, !tbaa !14
  %72 = load ptr, ptr %4, align 8, !tbaa !4
  %73 = getelementptr inbounds nuw %struct.AVSHA512, ptr %72, i32 0, i32 3
  %74 = getelementptr inbounds [8 x i64], ptr %73, i64 0, i64 3
  store i64 1526699215303891257, ptr %74, align 8, !tbaa !14
  %75 = load ptr, ptr %4, align 8, !tbaa !4
  %76 = getelementptr inbounds nuw %struct.AVSHA512, ptr %75, i32 0, i32 3
  %77 = getelementptr inbounds [8 x i64], ptr %76, i64 0, i64 4
  store i64 7436329637833083697, ptr %77, align 8, !tbaa !14
  %78 = load ptr, ptr %4, align 8, !tbaa !4
  %79 = getelementptr inbounds nuw %struct.AVSHA512, ptr %78, i32 0, i32 3
  %80 = getelementptr inbounds [8 x i64], ptr %79, i64 0, i64 5
  store i64 -8163818279084223215, ptr %80, align 8, !tbaa !14
  %81 = load ptr, ptr %4, align 8, !tbaa !4
  %82 = getelementptr inbounds nuw %struct.AVSHA512, ptr %81, i32 0, i32 3
  %83 = getelementptr inbounds [8 x i64], ptr %82, i64 0, i64 6
  store i64 -2662702644619276377, ptr %83, align 8, !tbaa !14
  %84 = load ptr, ptr %4, align 8, !tbaa !4
  %85 = getelementptr inbounds nuw %struct.AVSHA512, ptr %84, i32 0, i32 3
  %86 = getelementptr inbounds [8 x i64], ptr %85, i64 0, i64 7
  store i64 5167115440072839076, ptr %86, align 8, !tbaa !14
  br label %113

87:                                               ; preds = %2
  %88 = load ptr, ptr %4, align 8, !tbaa !4
  %89 = getelementptr inbounds nuw %struct.AVSHA512, ptr %88, i32 0, i32 3
  %90 = getelementptr inbounds [8 x i64], ptr %89, i64 0, i64 0
  store i64 7640891576956012808, ptr %90, align 8, !tbaa !14
  %91 = load ptr, ptr %4, align 8, !tbaa !4
  %92 = getelementptr inbounds nuw %struct.AVSHA512, ptr %91, i32 0, i32 3
  %93 = getelementptr inbounds [8 x i64], ptr %92, i64 0, i64 1
  store i64 -4942790177534073029, ptr %93, align 8, !tbaa !14
  %94 = load ptr, ptr %4, align 8, !tbaa !4
  %95 = getelementptr inbounds nuw %struct.AVSHA512, ptr %94, i32 0, i32 3
  %96 = getelementptr inbounds [8 x i64], ptr %95, i64 0, i64 2
  store i64 4354685564936845355, ptr %96, align 8, !tbaa !14
  %97 = load ptr, ptr %4, align 8, !tbaa !4
  %98 = getelementptr inbounds nuw %struct.AVSHA512, ptr %97, i32 0, i32 3
  %99 = getelementptr inbounds [8 x i64], ptr %98, i64 0, i64 3
  store i64 -6534734903238641935, ptr %99, align 8, !tbaa !14
  %100 = load ptr, ptr %4, align 8, !tbaa !4
  %101 = getelementptr inbounds nuw %struct.AVSHA512, ptr %100, i32 0, i32 3
  %102 = getelementptr inbounds [8 x i64], ptr %101, i64 0, i64 4
  store i64 5840696475078001361, ptr %102, align 8, !tbaa !14
  %103 = load ptr, ptr %4, align 8, !tbaa !4
  %104 = getelementptr inbounds nuw %struct.AVSHA512, ptr %103, i32 0, i32 3
  %105 = getelementptr inbounds [8 x i64], ptr %104, i64 0, i64 5
  store i64 -7276294671716946913, ptr %105, align 8, !tbaa !14
  %106 = load ptr, ptr %4, align 8, !tbaa !4
  %107 = getelementptr inbounds nuw %struct.AVSHA512, ptr %106, i32 0, i32 3
  %108 = getelementptr inbounds [8 x i64], ptr %107, i64 0, i64 6
  store i64 2270897969802886507, ptr %108, align 8, !tbaa !14
  %109 = load ptr, ptr %4, align 8, !tbaa !4
  %110 = getelementptr inbounds nuw %struct.AVSHA512, ptr %109, i32 0, i32 3
  %111 = getelementptr inbounds [8 x i64], ptr %110, i64 0, i64 7
  store i64 6620516959819538809, ptr %111, align 8, !tbaa !14
  br label %113

112:                                              ; preds = %2
  store i32 -22, ptr %3, align 4
  br label %116

113:                                              ; preds = %87, %62, %37, %12
  %114 = load ptr, ptr %4, align 8, !tbaa !4
  %115 = getelementptr inbounds nuw %struct.AVSHA512, ptr %114, i32 0, i32 1
  store i64 0, ptr %115, align 8, !tbaa !15
  store i32 0, ptr %3, align 4
  br label %116

116:                                              ; preds = %113, %112
  %117 = load i32, ptr %3, align 4
  ret i32 %117
}