; Function Attrs: cold mustprogress nofree norecurse nosync nounwind optsize willreturn memory(argmem: write) uwtable
define range(i32 -22, 1) i32 @av_sha512_init(ptr noundef writeonly captures(none) initializes((0, 1)) %0, i32 noundef %1) local_unnamed_addr #2 {
  %3 = lshr i32 %1, 6
  %4 = trunc i32 %3 to i8
  store i8 %4, ptr %0, align 8, !tbaa !4
  %5 = add i32 %1, -224
  %6 = tail call i32 @llvm.fshl.i32(i32 %5, i32 %5, i32 27)
  %7 = icmp ult i32 %6, 10
  %switch.maskindex = trunc i32 %6 to i16
  %switch.shifted = lshr i16 547, %switch.maskindex
  %switch.lobit = trunc i16 %switch.shifted to i1
  %or.cond = select i1 %7, i1 %switch.lobit, i1 false
  br i1 %or.cond, label %switch.lookup, label %25

switch.lookup:                                    ; preds = %2
  %8 = zext nneg i32 %6 to i64
  %switch.gep = getelementptr inbounds nuw [10 x i64], ptr @switch.table.av_sha512_init, i64 0, i64 %8
  %switch.load = load i64, ptr %switch.gep, align 8
  %9 = zext nneg i32 %6 to i64
  %switch.gep51 = getelementptr inbounds nuw [10 x i64], ptr @switch.table.av_sha512_init.1, i64 0, i64 %9
  %switch.load52 = load i64, ptr %switch.gep51, align 8
  %10 = zext nneg i32 %6 to i64
  %switch.gep53 = getelementptr inbounds nuw [10 x i64], ptr @switch.table.av_sha512_init.2, i64 0, i64 %10
  %switch.load54 = load i64, ptr %switch.gep53, align 8
  %11 = zext nneg i32 %6 to i64
  %switch.gep55 = getelementptr inbounds nuw [10 x i64], ptr @switch.table.av_sha512_init.3, i64 0, i64 %11
  %switch.load56 = load i64, ptr %switch.gep55, align 8
  %12 = zext nneg i32 %6 to i64
  %switch.gep57 = getelementptr inbounds nuw [10 x i64], ptr @switch.table.av_sha512_init.4, i64 0, i64 %12
  %switch.load58 = load i64, ptr %switch.gep57, align 8
  %13 = zext nneg i32 %6 to i64
  %switch.gep59 = getelementptr inbounds nuw [10 x i64], ptr @switch.table.av_sha512_init.5, i64 0, i64 %13
  %switch.load60 = load i64, ptr %switch.gep59, align 8
  %14 = zext nneg i32 %6 to i64
  %switch.gep61 = getelementptr inbounds nuw [10 x i64], ptr @switch.table.av_sha512_init.6, i64 0, i64 %14
  %switch.load62 = load i64, ptr %switch.gep61, align 8
  %15 = zext nneg i32 %6 to i64
  %switch.gep63 = getelementptr inbounds nuw [10 x i64], ptr @switch.table.av_sha512_init.7, i64 0, i64 %15
  %switch.load64 = load i64, ptr %switch.gep63, align 8
  %16 = getelementptr inbounds nuw i8, ptr %0, i64 144
  store i64 %switch.load, ptr %16, align 8, !tbaa !9
  %17 = getelementptr inbounds nuw i8, ptr %0, i64 152
  store i64 %switch.load52, ptr %17, align 8, !tbaa !9
  %18 = getelementptr inbounds nuw i8, ptr %0, i64 160
  store i64 %switch.load54, ptr %18, align 8, !tbaa !9
  %19 = getelementptr inbounds nuw i8, ptr %0, i64 168
  store i64 %switch.load56, ptr %19, align 8, !tbaa !9
  %20 = getelementptr inbounds nuw i8, ptr %0, i64 176
  store i64 %switch.load58, ptr %20, align 8, !tbaa !9
  %21 = getelementptr inbounds nuw i8, ptr %0, i64 184
  store i64 %switch.load60, ptr %21, align 8, !tbaa !9
  %22 = getelementptr inbounds nuw i8, ptr %0, i64 192
  store i64 %switch.load62, ptr %22, align 8, !tbaa !9
  %23 = getelementptr inbounds nuw i8, ptr %0, i64 200
  store i64 %switch.load64, ptr %23, align 8, !tbaa !9
  %24 = getelementptr inbounds nuw i8, ptr %0, i64 8
  store i64 0, ptr %24, align 8, !tbaa !10
  br label %25

25:                                               ; preds = %2, %switch.lookup
  %.0 = phi i32 [ 0, %switch.lookup ], [ -22, %2 ]
  ret i32 %.0
}